; Function Attrs: mustprogress uwtable
define internal void @"_ZZN4pkpy6Struct9_registerEPNS_2VMEPNS_8PyObjectES4_EN3$_38__invokeES2_S4_"(ptr dead_on_unwind noalias writable sret(%"struct.pkpy::Str") align 8 %0, ptr noundef nonnull %1, ptr nocapture noundef readonly %2) #3 align 2 personality ptr @__gxx_personality_v0 {
  %4 = alloca %"struct.pkpy::SStream", align 8
  call void @llvm.lifetime.start.p0(i64 24, ptr nonnull %4)
  %5 = tail call i16 @_ZN4pkpy2VM28_find_type_in_cxx_typeid_mapINS_6StructEEENS_4TypeEv(ptr noundef nonnull align 8 dereferenceable(264913) %1), !noalias !20
  store i32 0, ptr %4, align 8, !noalias !20
  %6 = getelementptr inbounds i8, ptr %4, i64 4
  store i32 64, ptr %6, align 4, !noalias !20
  %7 = tail call noundef ptr @_ZN4pkpy12pool64_allocEm(i64 noundef 64) #24, !noalias !20
  %8 = getelementptr inbounds i8, ptr %4, i64 8
  store ptr %7, ptr %8, align 8, !noalias !20
  %9 = getelementptr inbounds i8, ptr %4, i64 16
  store i32 -1, ptr %9, align 8, !noalias !20
  %10 = invoke noundef nonnull align 8 dereferenceable(20) ptr @_ZN4pkpy7SStreamlsEPKc(ptr noundef nonnull align 8 dereferenceable(20) %4, ptr noundef nonnull @.str.88)
          to label %11 unwind label %21, !noalias !20

11:                                               ; preds = %3
  %12 = getelementptr inbounds i8, ptr %2, i64 56
  %13 = load i32, ptr %12, align 8, !noalias !20
  %14 = invoke noundef nonnull align 8 dereferenceable(20) ptr @_ZN4pkpy7SStreamlsEi(ptr noundef nonnull align 8 dereferenceable(20) %10, i32 noundef %13)
          to label %15 unwind label %21, !noalias !20

15:                                               ; preds = %11
  %16 = invoke noundef nonnull align 8 dereferenceable(20) ptr @_ZN4pkpy7SStreamlsEPKc(ptr noundef nonnull align 8 dereferenceable(20) %14, ptr noundef nonnull @.str.89)
          to label %17 unwind label %21, !noalias !20

17:                                               ; preds = %15
  invoke void @_ZN4pkpy7SStream3strEv(ptr dead_on_unwind writable sret(%"struct.pkpy::Str") align 8 %0, ptr noundef nonnull align 8 dereferenceable(20) %4)
          to label %18 unwind label %21

18:                                               ; preds = %17
  %19 = load ptr, ptr %8, align 8, !noalias !20
  %.not.i.i.i = icmp eq ptr %19, null
  br i1 %.not.i.i.i, label %"_ZZN4pkpy6Struct9_registerEPNS_2VMEPNS_8PyObjectES4_ENK3$_3clES2_S4_.exit", label %20

20:                                               ; preds = %18
  call void @_ZN4pkpy14pool64_deallocEPv(ptr noundef nonnull %19) #24
  br label %"_ZZN4pkpy6Struct9_registerEPNS_2VMEPNS_8PyObjectES4_ENK3$_3clES2_S4_.exit"

21:                                               ; preds = %17, %15, %11, %3
  %22 = landingpad { ptr, i32 }
          cleanup
  %23 = load ptr, ptr %8, align 8, !noalias !20
  %.not.i.i4.i = icmp eq ptr %23, null
  br i1 %.not.i.i4.i, label %_ZN4pkpy7SStreamD2Ev.exit5.i, label %24

24:                                               ; preds = %21
  call void @_ZN4pkpy14pool64_deallocEPv(ptr noundef nonnull %23) #24
  br label %_ZN4pkpy7SStreamD2Ev.exit5.i

_ZN4pkpy7SStreamD2Ev.exit5.i:                     ; preds = %24, %21
  resume { ptr, i32 } %22

"_ZZN4pkpy6Struct9_registerEPNS_2VMEPNS_8PyObjectES4_ENK3$_3clES2_S4_.exit": ; preds = %18, %20
  call void @llvm.lifetime.end.p0(i64 24, ptr nonnull %4)
  ret void
}